; Function Attrs: mustprogress uwtable
define dso_local void @_ZN4base20SampleVectorIteratorC2EPKSt6vectorIiSaIiEEPKNS_12BucketRangesE(ptr noundef nonnull align 8 dereferenceable(40) %this, ptr nocapture noundef readonly %counts, ptr noundef %bucket_ranges) unnamed_addr #0 align 2 personality ptr @__gxx_personality_v0 {
entry:
  %ref.tmp = alloca i64, align 8
  %ref.tmp11 = alloca %"class.logging::LogMessage", align 8
  store ptr getelementptr inbounds ({ [8 x ptr] }, ptr @_ZTVN4base20SampleVectorIteratorE, i64 0, i32 0, i64 2), ptr %this, align 8
  %counts_ = getelementptr inbounds i8, ptr %this, i64 8
  %0 = load ptr, ptr %counts, align 8
  store ptr %0, ptr %counts_, align 8
  %counts_size_ = getelementptr inbounds i8, ptr %this, i64 16
  %_M_finish.i = getelementptr inbounds i8, ptr %counts, i64 8
  %1 = load ptr, ptr %_M_finish.i, align 8
  %sub.ptr.lhs.cast.i = ptrtoint ptr %1 to i64
  %sub.ptr.rhs.cast.i = ptrtoint ptr %0 to i64
  %sub.ptr.sub.i = sub i64 %sub.ptr.lhs.cast.i, %sub.ptr.rhs.cast.i
  %sub.ptr.div.i = ashr exact i64 %sub.ptr.sub.i, 2
  store i64 %sub.ptr.div.i, ptr %counts_size_, align 8
  %bucket_ranges_ = getelementptr inbounds i8, ptr %this, i64 24
  store ptr %bucket_ranges, ptr %bucket_ranges_, align 8
  %index_ = getelementptr inbounds i8, ptr %this, i64 32
  store i64 0, ptr %index_, align 8
  %_M_finish.i.i = getelementptr inbounds i8, ptr %bucket_ranges, i64 8
  %2 = load ptr, ptr %_M_finish.i.i, align 8
  %3 = load ptr, ptr %bucket_ranges, align 8
  %sub.ptr.lhs.cast.i.i = ptrtoint ptr %2 to i64
  %sub.ptr.rhs.cast.i.i = ptrtoint ptr %3 to i64
  %sub.ptr.sub.i.i = sub i64 %sub.ptr.lhs.cast.i.i, %sub.ptr.rhs.cast.i.i
  %sub.ptr.div.i.i = ashr exact i64 %sub.ptr.sub.i.i, 2
  %sub.i = add nsw i64 %sub.ptr.div.i.i, -1
  store i64 %sub.i, ptr %ref.tmp, align 8
  %cmp.not.i = icmp ult i64 %sub.i, %sub.ptr.div.i
  br i1 %cmp.not.i, label %if.else.i, label %if.end

if.else.i:                                        ; preds = %entry
  %call.i2 = invoke noundef ptr @_ZN7logging17MakeCheckOpStringImmEEPNSt7__cxx1112basic_stringIcSt11char_traitsIcESaIcEEERKT_RKT0_PKc(ptr noundef nonnull align 8 dereferenceable(8) %ref.tmp, ptr noundef nonnull align 8 dereferenceable(8) %counts_size_, ptr noundef nonnull @.str.7)
          to label %invoke.cont6 unwind label %lpad

invoke.cont6:                                     ; preds = %if.else.i
  %tobool.not.i = icmp eq ptr %call.i2, null
  br i1 %tobool.not.i, label %if.end, label %if.else

lpad:                                             ; preds = %if.end, %if.else.i, %if.else
  %4 = landingpad { ptr, i32 }
          cleanup
  call void @_ZN4base19SampleCountIteratorD2Ev(ptr noundef nonnull align 8 dereferenceable(8) %this) #16
  resume { ptr, i32 } %4

if.else:                                          ; preds = %invoke.cont6
  invoke void @_ZN7logging10LogMessageC1EPKciPNSt7__cxx1112basic_stringIcSt11char_traitsIcESaIcEEE(ptr noundef nonnull align 8 dereferenceable(404) %ref.tmp11, ptr noundef nonnull @.str.1, i32 noundef 135, ptr noundef nonnull %call.i2)
          to label %invoke.cont14 unwind label %lpad

invoke.cont14:                                    ; preds = %if.else
  call void @_ZN7logging10LogMessageD1Ev(ptr noundef nonnull align 8 dereferenceable(404) %ref.tmp11) #16
  br label %if.end

if.end:                                           ; preds = %entry, %invoke.cont6, %invoke.cont14
  %vtable.i = load ptr, ptr %this, align 8
  %vfn.i = getelementptr inbounds i8, ptr %vtable.i, i64 16
  %5 = load ptr, ptr %vfn.i, align 8
  %call.i4 = invoke noundef zeroext i1 %5(ptr noundef nonnull align 8 dereferenceable(40) %this)
          to label %call.i.noexc3 unwind label %lpad

call.i.noexc3:                                    ; preds = %if.end
  br i1 %call.i4, label %invoke.cont18, label %while.cond.preheader.i

while.cond.preheader.i:                           ; preds = %call.i.noexc3
  %6 = load i64, ptr %counts_size_, align 8
  %7 = load i64, ptr %index_, align 8
  %cmp1.i = icmp ult i64 %7, %6
  br i1 %cmp1.i, label %while.body.lr.ph.i, label %invoke.cont18

while.body.lr.ph.i:                               ; preds = %while.cond.preheader.i
  %8 = load ptr, ptr %counts_, align 8
  br label %while.body.i

while.body.i:                                     ; preds = %if.end6.i, %while.body.lr.ph.i
  %9 = phi i64 [ %7, %while.body.lr.ph.i ], [ %inc.i, %if.end6.i ]
  %arrayidx.i = getelementptr inbounds i32, ptr %8, i64 %9
  %10 = load atomic volatile i32, ptr %arrayidx.i monotonic, align 4
  %cmp4.not.i = icmp eq i32 %10, 0
  br i1 %cmp4.not.i, label %if.end6.i, label %invoke.cont18

if.end6.i:                                        ; preds = %while.body.i
  %inc.i = add i64 %9, 1
  store i64 %inc.i, ptr %index_, align 8
  %exitcond.not.i = icmp eq i64 %inc.i, %6
  br i1 %exitcond.not.i, label %invoke.cont18, label %while.body.i, !llvm.loop !9

invoke.cont18:                                    ; preds = %if.end6.i, %while.body.i, %while.cond.preheader.i, %call.i.noexc3
  ret void
}